target datalayout = "e-m:e-p270:32:32-p271:32:32-p272:64:64-i64:64-i128:128-f80:128-n8:16:32:64-S128"
target triple = "x86_64-pc-linux-gnu"

; Function Attrs: nounwind uwtable
define internal void @pred8x8_left_dc_8_c(ptr noundef %0, i64 noundef %1) #1 {
  %3 = alloca ptr, align 8
  %4 = alloca i64, align 8
  %5 = alloca i32, align 4
  %6 = alloca i32, align 4
  %7 = alloca i32, align 4
  %8 = alloca i32, align 4
  %9 = alloca i32, align 4
  %10 = alloca ptr, align 8
  store ptr %0, ptr %3, align 8, !tbaa !12
  store i64 %1, ptr %4, align 8, !tbaa !14
  call void @llvm.lifetime.start.p0(i64 4, ptr %5) #9
  call void @llvm.lifetime.start.p0(i64 4, ptr %6) #9
  call void @llvm.lifetime.start.p0(i64 4, ptr %7) #9
  call void @llvm.lifetime.start.p0(i64 4, ptr %8) #9
  call void @llvm.lifetime.start.p0(i64 4, ptr %9) #9
  call void @llvm.lifetime.start.p0(i64 8, ptr %10) #9
  %11 = load ptr, ptr %3, align 8, !tbaa !12
  store ptr %11, ptr %10, align 8, !tbaa !12
  %12 = load i64, ptr %4, align 8, !tbaa !14
  %13 = ashr i64 %12, 0
  store i64 %13, ptr %4, align 8, !tbaa !14
  store i32 0, ptr %7, align 4, !tbaa !9
  store i32 0, ptr %6, align 4, !tbaa !9
  store i32 0, ptr %5, align 4, !tbaa !9
  br label %14

14:                                               ; preds = %41, %2
  %15 = load i32, ptr %5, align 4, !tbaa !9
  %16 = icmp slt i32 %15, 4
  br i1 %16, label %17, label %44

17:                                               ; preds = %14
  %18 = load ptr, ptr %10, align 8, !tbaa !12
  %19 = load i32, ptr %5, align 4, !tbaa !9
  %20 = sext i32 %19 to i64
  %21 = load i64, ptr %4, align 8, !tbaa !14
  %22 = mul nsw i64 %20, %21
  %23 = add nsw i64 -1, %22
  %24 = getelementptr inbounds i8, ptr %18, i64 %23
  %25 = load i8, ptr %24, align 1, !tbaa !18
  %26 = zext i8 %25 to i32
  %27 = load i32, ptr %6, align 4, !tbaa !9
  %28 = add nsw i32 %27, %26
  store i32 %28, ptr %6, align 4, !tbaa !9
  %29 = load ptr, ptr %10, align 8, !tbaa !12
  %30 = load i32, ptr %5, align 4, !tbaa !9
  %31 = add nsw i32 %30, 4
  %32 = sext i32 %31 to i64
  %33 = load i64, ptr %4, align 8, !tbaa !14
  %34 = mul nsw i64 %32, %33
  %35 = add nsw i64 -1, %34
  %36 = getelementptr inbounds i8, ptr %29, i64 %35
  %37 = load i8, ptr %36, align 1, !tbaa !18
  %38 = zext i8 %37 to i32
  %39 = load i32, ptr %7, align 4, !tbaa !9
  %40 = add nsw i32 %39, %38
  store i32 %40, ptr %7, align 4, !tbaa !9
  br label %41

41:                                               ; preds = %17
  %42 = load i32, ptr %5, align 4, !tbaa !9
  %43 = add nsw i32 %42, 1
  store i32 %43, ptr %5, align 4, !tbaa !9
  br label %14, !llvm.loop !261

44:                                               ; preds = %14
  %45 = load i32, ptr %6, align 4, !tbaa !9
  %46 = add nsw i32 %45, 2
  %47 = ashr i32 %46, 2
  %48 = mul i32 %47, 16843009
  store i32 %48, ptr %8, align 4, !tbaa !9
  %49 = load i32, ptr %7, align 4, !tbaa !9
  %50 = add nsw i32 %49, 2
  %51 = ashr i32 %50, 2
  %52 = mul i32 %51, 16843009
  store i32 %52, ptr %9, align 4, !tbaa !9
  store i32 0, ptr %5, align 4, !tbaa !9
  br label %53

53:                                               ; preds = %73, %44
  %54 = load i32, ptr %5, align 4, !tbaa !9
  %55 = icmp slt i32 %54, 4
  br i1 %55, label %56, label %76

56:                                               ; preds = %53
  %57 = load i32, ptr %8, align 4, !tbaa !9
  %58 = load ptr, ptr %10, align 8, !tbaa !12
  %59 = load i32, ptr %5, align 4, !tbaa !9
  %60 = sext i32 %59 to i64
  %61 = load i64, ptr %4, align 8, !tbaa !14
  %62 = mul nsw i64 %60, %61
  %63 = getelementptr inbounds i8, ptr %58, i64 %62
  %64 = getelementptr inbounds i32, ptr %63, i64 0
  store i32 %57, ptr %64, align 4, !tbaa !18
  %65 = load i32, ptr %8, align 4, !tbaa !9
  %66 = load ptr, ptr %10, align 8, !tbaa !12
  %67 = load i32, ptr %5, align 4, !tbaa !9
  %68 = sext i32 %67 to i64
  %69 = load i64, ptr %4, align 8, !tbaa !14
  %70 = mul nsw i64 %68, %69
  %71 = getelementptr inbounds i8, ptr %66, i64 %70
  %72 = getelementptr inbounds i32, ptr %71, i64 1
  store i32 %65, ptr %72, align 4, !tbaa !18
  br label %73

73:                                               ; preds = %56
  %74 = load i32, ptr %5, align 4, !tbaa !9
  %75 = add nsw i32 %74, 1
  store i32 %75, ptr %5, align 4, !tbaa !9
  br label %53, !llvm.loop !262

76:                                               ; preds = %53
  store i32 4, ptr %5, align 4, !tbaa !9
  br label %77

77:                                               ; preds = %97, %76
  %78 = load i32, ptr %5, align 4, !tbaa !9
  %79 = icmp slt i32 %78, 8
  br i1 %79, label %80, label %100

80:                                               ; preds = %77
  %81 = load i32, ptr %9, align 4, !tbaa !9
  %82 = load ptr, ptr %10, align 8, !tbaa !12
  %83 = load i32, ptr %5, align 4, !tbaa !9
  %84 = sext i32 %83 to i64
  %85 = load i64, ptr %4, align 8, !tbaa !14
  %86 = mul nsw i64 %84, %85
  %87 = getelementptr inbounds i8, ptr %82, i64 %86
  %88 = getelementptr inbounds i32, ptr %87, i64 0
  store i32 %81, ptr %88, align 4, !tbaa !18
  %89 = load i32, ptr %9, align 4, !tbaa !9
  %90 = load ptr, ptr %10, align 8, !tbaa !12
  %91 = load i32, ptr %5, align 4, !tbaa !9
  %92 = sext i32 %91 to i64
  %93 = load i64, ptr %4, align 8, !tbaa !14
  %94 = mul nsw i64 %92, %93
  %95 = getelementptr inbounds i8, ptr %90, i64 %94
  %96 = getelementptr inbounds i32, ptr %95, i64 1
  store i32 %89, ptr %96, align 4, !tbaa !18
  br label %97

97:                                               ; preds = %80
  %98 = load i32, ptr %5, align 4, !tbaa !9
  %99 = add nsw i32 %98, 1
  store i32 %99, ptr %5, align 4, !tbaa !9
  br label %77, !llvm.loop !263

100:                                              ; preds = %77
  call void @llvm.lifetime.end.p0(i64 8, ptr %10) #9
  call void @llvm.lifetime.end.p0(i64 4, ptr %9) #9
  call void @llvm.lifetime.end.p0(i64 4, ptr %8) #9
  call void @llvm.lifetime.end.p0(i64 4, ptr %7) #9
  call void @llvm.lifetime.end.p0(i64 4, ptr %6) #9
  call void @llvm.lifetime.end.p0(i64 4, ptr %5) #9
  ret void
}

; Function Attrs: nounwind uwtable
define internal void @pred8x16_left_dc_8_c(ptr noundef %0, i64 noundef %1) #1 {
  %3 = alloca ptr, align 8
  %4 = alloca i64, align 8
  store ptr %0, ptr %3, align 8, !tbaa !12
  store i64 %1, ptr %4, align 8, !tbaa !14
  %5 = load ptr, ptr %3, align 8, !tbaa !12
  %6 = load i64, ptr %4, align 8, !tbaa !14
  call void @pred8x8_left_dc_8_c(ptr noundef %5, i64 noundef %6)
  %7 = load ptr, ptr %3, align 8, !tbaa !12
  %8 = load i64, ptr %4, align 8, !tbaa !14
  %9 = mul nsw i64 8, %8
  %10 = getelementptr inbounds i8, ptr %7, i64 %9
  %11 = load i64, ptr %4, align 8, !tbaa !14
  call void @pred8x8_left_dc_8_c(ptr noundef %10, i64 noundef %11)
  ret void
}