; Function Attrs: nofree norecurse nosync nounwind memory(argmem: readwrite) uwtable
define internal void @pred8x16_left_dc_8_c(ptr noundef captures(none) %0, i64 noundef %1) #3 {
  %invariant.gep.i = getelementptr i8, ptr %0, i64 -1
  br label %3

3:                                                ; preds = %3, %2
  %indvars.iv.i = phi i64 [ 0, %2 ], [ %indvars.iv.next.i, %3 ]
  %.03338.i = phi i32 [ 0, %2 ], [ %7, %3 ]
  %.03437.i = phi i32 [ 0, %2 ], [ %12, %3 ]
  %4 = mul nsw i64 %indvars.iv.i, %1
  %gep.i = getelementptr i8, ptr %invariant.gep.i, i64 %4
  %5 = load i8, ptr %gep.i, align 1, !tbaa !8
  %6 = zext i8 %5 to i32
  %7 = add nuw nsw i32 %.03338.i, %6
  %8 = add nuw nsw i64 %indvars.iv.i, 4
  %9 = mul nsw i64 %8, %1
  %gep36.i = getelementptr i8, ptr %invariant.gep.i, i64 %9
  %10 = load i8, ptr %gep36.i, align 1, !tbaa !8
  %11 = zext i8 %10 to i32
  %12 = add nuw nsw i32 %.03437.i, %11
  %indvars.iv.next.i = add nuw nsw i64 %indvars.iv.i, 1
  %exitcond.not.i = icmp eq i64 %indvars.iv.next.i, 4
  br i1 %exitcond.not.i, label %13, label %3, !llvm.loop !263

13:                                               ; preds = %3
  %14 = add nuw nsw i32 %7, 2
  %15 = lshr i32 %14, 2
  %16 = mul i32 %15, 16843009
  br label %17

17:                                               ; preds = %17, %13
  %indvars.iv44.i = phi i64 [ 0, %13 ], [ %indvars.iv.next45.i, %17 ]
  %18 = mul nsw i64 %indvars.iv44.i, %1
  %19 = getelementptr inbounds i8, ptr %0, i64 %18
  store i32 %16, ptr %19, align 4, !tbaa !8
  %20 = getelementptr inbounds nuw i8, ptr %19, i64 4
  store i32 %16, ptr %20, align 4, !tbaa !8
  %indvars.iv.next45.i = add nuw nsw i64 %indvars.iv44.i, 1
  %exitcond47.not.i = icmp eq i64 %indvars.iv.next45.i, 4
  br i1 %exitcond47.not.i, label %.preheader.preheader.i, label %17, !llvm.loop !264

.preheader.preheader.i:                           ; preds = %17
  %21 = add nuw nsw i32 %12, 2
  %22 = lshr i32 %21, 2
  %23 = mul i32 %22, 16843009
  br label %.preheader.i

.preheader.i:                                     ; preds = %.preheader.i, %.preheader.preheader.i
  %indvars.iv48.i = phi i64 [ 4, %.preheader.preheader.i ], [ %indvars.iv.next49.i, %.preheader.i ]
  %24 = mul nsw i64 %indvars.iv48.i, %1
  %25 = getelementptr inbounds i8, ptr %0, i64 %24
  store i32 %23, ptr %25, align 4, !tbaa !8
  %26 = getelementptr inbounds nuw i8, ptr %25, i64 4
  store i32 %23, ptr %26, align 4, !tbaa !8
  %indvars.iv.next49.i = add nuw nsw i64 %indvars.iv48.i, 1
  %exitcond51.not.i = icmp eq i64 %indvars.iv.next49.i, 8
  br i1 %exitcond51.not.i, label %pred8x8_left_dc_8_c.exit, label %.preheader.i, !llvm.loop !265

pred8x8_left_dc_8_c.exit:                         ; preds = %.preheader.i
  %27 = shl nsw i64 %1, 3
  %28 = getelementptr inbounds i8, ptr %0, i64 %27
  %invariant.gep.i4 = getelementptr i8, ptr %28, i64 -1
  br label %29

29:                                               ; preds = %29, %pred8x8_left_dc_8_c.exit
  %indvars.iv.i5 = phi i64 [ 0, %pred8x8_left_dc_8_c.exit ], [ %indvars.iv.next.i10, %29 ]
  %.03338.i6 = phi i32 [ 0, %pred8x8_left_dc_8_c.exit ], [ %33, %29 ]
  %.03437.i7 = phi i32 [ 0, %pred8x8_left_dc_8_c.exit ], [ %38, %29 ]
  %30 = mul nsw i64 %indvars.iv.i5, %1
  %gep.i8 = getelementptr i8, ptr %invariant.gep.i4, i64 %30
  %31 = load i8, ptr %gep.i8, align 1, !tbaa !8
  %32 = zext i8 %31 to i32
  %33 = add nuw nsw i32 %.03338.i6, %32
  %34 = add nuw nsw i64 %indvars.iv.i5, 4
  %35 = mul nsw i64 %34, %1
  %gep36.i9 = getelementptr i8, ptr %invariant.gep.i4, i64 %35
  %36 = load i8, ptr %gep36.i9, align 1, !tbaa !8
  %37 = zext i8 %36 to i32
  %38 = add nuw nsw i32 %.03437.i7, %37
  %indvars.iv.next.i10 = add nuw nsw i64 %indvars.iv.i5, 1
  %exitcond.not.i11 = icmp eq i64 %indvars.iv.next.i10, 4
  br i1 %exitcond.not.i11, label %39, label %29, !llvm.loop !263

39:                                               ; preds = %29
  %40 = add nuw nsw i32 %33, 2
  %41 = lshr i32 %40, 2
  %42 = mul i32 %41, 16843009
  br label %43

43:                                               ; preds = %43, %39
  %indvars.iv44.i12 = phi i64 [ 0, %39 ], [ %indvars.iv.next45.i13, %43 ]
  %44 = mul nsw i64 %indvars.iv44.i12, %1
  %45 = getelementptr inbounds i8, ptr %28, i64 %44
  store i32 %42, ptr %45, align 4, !tbaa !8
  %46 = getelementptr inbounds nuw i8, ptr %45, i64 4
  store i32 %42, ptr %46, align 4, !tbaa !8
  %indvars.iv.next45.i13 = add nuw nsw i64 %indvars.iv44.i12, 1
  %exitcond47.not.i14 = icmp eq i64 %indvars.iv.next45.i13, 4
  br i1 %exitcond47.not.i14, label %.preheader.preheader.i15, label %43, !llvm.loop !264

.preheader.preheader.i15:                         ; preds = %43
  %47 = add nuw nsw i32 %38, 2
  %48 = lshr i32 %47, 2
  %49 = mul i32 %48, 16843009
  br label %.preheader.i16

.preheader.i16:                                   ; preds = %.preheader.i16, %.preheader.preheader.i15
  %indvars.iv48.i17 = phi i64 [ 4, %.preheader.preheader.i15 ], [ %indvars.iv.next49.i18, %.preheader.i16 ]
  %50 = mul nsw i64 %indvars.iv48.i17, %1
  %51 = getelementptr inbounds i8, ptr %28, i64 %50
  store i32 %49, ptr %51, align 4, !tbaa !8
  %52 = getelementptr inbounds nuw i8, ptr %51, i64 4
  store i32 %49, ptr %52, align 4, !tbaa !8
  %indvars.iv.next49.i18 = add nuw nsw i64 %indvars.iv48.i17, 1
  %exitcond51.not.i19 = icmp eq i64 %indvars.iv.next49.i18, 8
  br i1 %exitcond51.not.i19, label %pred8x8_left_dc_8_c.exit20, label %.preheader.i16, !llvm.loop !265

pred8x8_left_dc_8_c.exit20:                       ; preds = %.preheader.i16
  ret void
}